target datalayout = "e-m:e-p270:32:32-p271:32:32-p272:64:64-i64:64-i128:128-f80:128-n8:16:32:64-S128"
target triple = "x86_64-pc-linux-gnu"

%struct._zend_executor_globals = type { %struct._zval_struct, %struct._zval_struct, [32 x ptr], ptr, ptr, %struct._zend_array, %struct._zend_array, ptr, i32, i32, ptr, ptr, ptr, ptr, ptr, ptr, i64, ptr, ptr, i32, i32, i64, i32, i32, i32, i8, i8, %struct.zend_atomic_bool_s, %struct.zend_atomic_bool_s, ptr, i64, ptr, ptr, %struct._zend_array, %struct._zend_array, i32, i8, %struct._zval_struct, %struct._zval_struct, %struct._zend_stack, %struct._zend_stack, %struct._zend_stack, ptr, i32, i32, i64, ptr, ptr, ptr, %struct._zend_objects_store, ptr, ptr, ptr, [3 x %struct._zend_op], ptr, i8, i8, i64, i32, i32, ptr, [16 x %struct._HashTableIterator], ptr, %union._zend_function, %struct._zend_op, %struct._zend_array, i64, %struct.zend_get_gc_buffer, ptr, ptr, ptr, i64, i8, i32, ptr, ptr, i64, %struct._zend_call_stack, i64, i64, [6 x ptr] }
%struct.zend_atomic_bool_s = type { i8 }
%struct._zval_struct = type { %union._zend_value, %union.anon, %union.anon.2 }
%union._zend_value = type { i64 }
%union.anon = type { i32 }
%union.anon.2 = type { i32 }
%struct._zend_stack = type { i32, i32, i32, ptr }
%struct._zend_objects_store = type { ptr, i32, i32, i32 }
%struct._HashTableIterator = type { ptr, i32, i32 }
%union._zend_function = type { %struct._zend_op_array }
%struct._zend_op_array = type { i8, [3 x i8], i32, ptr, ptr, ptr, i32, i32, ptr, ptr, ptr, ptr, i32, i32, i32, i32, ptr, ptr, ptr, ptr, ptr, i32, i32, ptr, ptr, ptr, i32, i32, i32, i32, ptr, ptr, [6 x ptr] }
%struct._zend_op = type { ptr, %union._znode_op, %union._znode_op, %union._znode_op, i32, i32, i8, i8, i8, i8 }
%union._znode_op = type { i32 }
%struct._zend_array = type { %struct._zend_refcounted_h, %union.anon.4, i32, %union.anon.6, i32, i32, i32, i32, i64, ptr }
%struct._zend_refcounted_h = type { i32, %union.anon.3 }
%union.anon.3 = type { i32 }
%union.anon.4 = type { i32 }
%union.anon.6 = type { ptr }
%struct.zend_get_gc_buffer = type { ptr, ptr, ptr }
%struct._zend_call_stack = type { ptr, i64 }
%struct._zend_execute_data = type { ptr, ptr, ptr, ptr, %struct._zval_struct, ptr, ptr, ptr, ptr }
%struct._xmlNode = type { ptr, i32, ptr, ptr, ptr, ptr, ptr, ptr, ptr, ptr, ptr, ptr, ptr, ptr, i16, i16 }
%struct._zend_string = type { %struct._zend_refcounted_h, i64, i64, [1 x i8] }
%struct._dom_object = type { ptr, ptr, ptr, %struct._zend_object }
%struct._zend_object = type { %struct._zend_refcounted_h, i32, ptr, ptr, ptr, [1 x %struct._zval_struct] }
%struct._zend_class_entry = type { i8, ptr, %union.anon.8, i32, i32, i32, i32, ptr, ptr, ptr, %struct._zend_array, %struct._zend_array, %struct._zend_array, ptr, ptr, ptr, ptr, ptr, ptr, ptr, ptr, ptr, ptr, ptr, ptr, ptr, ptr, ptr, ptr, ptr, ptr, ptr, %union.anon.9, ptr, ptr, ptr, ptr, i32, i32, %union.anon.10, ptr, ptr, ptr, ptr, i32, ptr, ptr, %union.anon.11 }
%union.anon.8 = type { ptr }
%union.anon.9 = type { ptr }
%union.anon.10 = type { ptr }
%union.anon.11 = type { %struct.anon.12 }
%struct.anon.12 = type { ptr, i32, i32 }
%struct._php_libxml_node_ptr = type { ptr, i32, ptr }

@executor_globals = external global %struct._zend_executor_globals, align 8
@xmlFree = external global ptr, align 8
@.str.1 = private unnamed_addr constant [2 x i8] c"l\00", align 1
@.str.2 = private unnamed_addr constant [18 x i8] c"Couldn't fetch %s\00", align 1
@.str.3 = private unnamed_addr constant [35 x i8] c"must be greater than or equal to 0\00", align 1

; Function Attrs: nounwind uwtable
define internal ptr @php_dom_obj_from_obj(ptr noundef %0) #0 {
  %2 = alloca ptr, align 8
  store ptr %0, ptr %2, align 8
  %3 = load ptr, ptr %2, align 8
  %4 = getelementptr inbounds i8, ptr %3, i64 -24
  ret ptr %4
}

; Function Attrs: nounwind uwtable
define hidden void @zim_DOMText_splitText(ptr noundef %0, ptr noundef %1) #0 {
  %3 = alloca ptr, align 8
  %4 = alloca ptr, align 8
  %5 = alloca ptr, align 8
  %6 = alloca ptr, align 8
  %7 = alloca ptr, align 8
  %8 = alloca ptr, align 8
  %9 = alloca ptr, align 8
  %10 = alloca ptr, align 8
  %11 = alloca i64, align 8
  %12 = alloca i32, align 4
  %13 = alloca ptr, align 8
  store ptr %0, ptr %3, align 8
  store ptr %1, ptr %4, align 8
  %14 = load ptr, ptr %3, align 8
  %15 = getelementptr inbounds %struct._zend_execute_data, ptr %14, i32 0, i32 4
  store ptr %15, ptr %5, align 8
  %16 = load ptr, ptr %3, align 8
  %17 = getelementptr inbounds %struct._zend_execute_data, ptr %16, i32 0, i32 4
  %18 = getelementptr inbounds %struct._zval_struct, ptr %17, i32 0, i32 2
  %19 = load i32, ptr %18, align 4
  %20 = call i32 (i32, ptr, ...) @zend_parse_parameters(i32 noundef %19, ptr noundef @.str.1, ptr noundef %11)
  %21 = icmp eq i32 %20, -1
  br i1 %21, label %22, label %27

22:                                               ; preds = %2
  br label %23

23:                                               ; preds = %22
  %24 = load ptr, ptr getelementptr inbounds (%struct._zend_executor_globals, ptr @executor_globals, i32 0, i32 50), align 8
  %25 = icmp ne ptr %24, null
  call void @llvm.assume(i1 %25)
  br label %169

26:                                               ; No predecessors!
  br label %27

27:                                               ; preds = %26, %2
  %28 = load ptr, ptr %5, align 8
  %29 = getelementptr inbounds %struct._zval_struct, ptr %28, i32 0, i32 0
  %30 = load ptr, ptr %29, align 8
  %31 = call ptr @php_dom_obj_from_obj(ptr noundef %30)
  store ptr %31, ptr %13, align 8
  %32 = load ptr, ptr %13, align 8
  %33 = getelementptr inbounds %struct._dom_object, ptr %32, i32 0, i32 0
  %34 = load ptr, ptr %33, align 8
  %35 = icmp eq ptr %34, null
  %36 = xor i1 %35, true
  %37 = xor i1 %36, true
  %38 = zext i1 %37 to i32
  %39 = sext i32 %38 to i64
  %40 = icmp ne i64 %39, 0
  br i1 %40, label %41, label %54

41:                                               ; preds = %27
  %42 = load ptr, ptr %13, align 8
  %43 = getelementptr inbounds %struct._dom_object, ptr %42, i32 0, i32 3
  %44 = getelementptr inbounds %struct._zend_object, ptr %43, i32 0, i32 2
  %45 = load ptr, ptr %44, align 8
  %46 = getelementptr inbounds %struct._zend_class_entry, ptr %45, i32 0, i32 1
  %47 = load ptr, ptr %46, align 8
  %48 = getelementptr inbounds %struct._zend_string, ptr %47, i32 0, i32 3
  %49 = getelementptr inbounds [1 x i8], ptr %48, i64 0, i64 0
  call void (ptr, ptr, ...) @zend_throw_error(ptr noundef null, ptr noundef @.str.2, ptr noundef %49)
  br label %50

50:                                               ; preds = %41
  %51 = load ptr, ptr getelementptr inbounds (%struct._zend_executor_globals, ptr @executor_globals, i32 0, i32 50), align 8
  %52 = icmp ne ptr %51, null
  call void @llvm.assume(i1 %52)
  br label %169

53:                                               ; No predecessors!
  br label %54

54:                                               ; preds = %53, %27
  %55 = load ptr, ptr %13, align 8
  %56 = getelementptr inbounds %struct._dom_object, ptr %55, i32 0, i32 0
  %57 = load ptr, ptr %56, align 8
  %58 = getelementptr inbounds %struct._php_libxml_node_ptr, ptr %57, i32 0, i32 0
  %59 = load ptr, ptr %58, align 8
  store ptr %59, ptr %9, align 8
  %60 = load i64, ptr %11, align 8
  %61 = icmp slt i64 %60, 0
  br i1 %61, label %62, label %67

62:                                               ; preds = %54
  call void (i32, ptr, ...) @zend_argument_value_error(i32 noundef 1, ptr noundef @.str.3)
  br label %63

63:                                               ; preds = %62
  %64 = load ptr, ptr getelementptr inbounds (%struct._zend_executor_globals, ptr @executor_globals, i32 0, i32 50), align 8
  %65 = icmp ne ptr %64, null
  call void @llvm.assume(i1 %65)
  br label %169

66:                                               ; No predecessors!
  br label %67

67:                                               ; preds = %66, %54
  %68 = load ptr, ptr %9, align 8
  %69 = getelementptr inbounds %struct._xmlNode, ptr %68, i32 0, i32 1
  %70 = load i32, ptr %69, align 8
  %71 = icmp ne i32 %70, 3
  br i1 %71, label %72, label %84

72:                                               ; preds = %67
  %73 = load ptr, ptr %9, align 8
  %74 = getelementptr inbounds %struct._xmlNode, ptr %73, i32 0, i32 1
  %75 = load i32, ptr %74, align 8
  %76 = icmp ne i32 %75, 4
  br i1 %76, label %77, label %84

77:                                               ; preds = %72
  br label %78

78:                                               ; preds = %77
  br label %79

79:                                               ; preds = %78
  %80 = load ptr, ptr %4, align 8
  %81 = getelementptr inbounds %struct._zval_struct, ptr %80, i32 0, i32 1
  store i32 2, ptr %81, align 8
  br label %82

82:                                               ; preds = %79
  br label %169

83:                                               ; No predecessors!
  br label %84

84:                                               ; preds = %83, %72, %67
  %85 = load ptr, ptr %9, align 8
  %86 = getelementptr inbounds %struct._xmlNode, ptr %85, i32 0, i32 10
  %87 = load ptr, ptr %86, align 8
  store ptr %87, ptr %6, align 8
  %88 = load ptr, ptr %6, align 8
  %89 = icmp eq ptr %88, null
  br i1 %89, label %90, label %97

90:                                               ; preds = %84
  br label %91

91:                                               ; preds = %90
  br label %92

92:                                               ; preds = %91
  %93 = load ptr, ptr %4, align 8
  %94 = getelementptr inbounds %struct._zval_struct, ptr %93, i32 0, i32 1
  store i32 2, ptr %94, align 8
  br label %95

95:                                               ; preds = %92
  br label %169

96:                                               ; No predecessors!
  br label %97

97:                                               ; preds = %96, %84
  %98 = load ptr, ptr %6, align 8
  %99 = call i32 @xmlUTF8Strlen(ptr noundef %98)
  store i32 %99, ptr %12, align 4
  %100 = load i64, ptr %11, align 8
  %101 = icmp sgt i64 %100, 2147483647
  %102 = xor i1 %101, true
  %103 = xor i1 %102, true
  %104 = zext i1 %103 to i32
  %105 = sext i32 %104 to i64
  %106 = icmp ne i64 %105, 0
  br i1 %106, label %112, label %107

107:                                              ; preds = %97
  %108 = load i64, ptr %11, align 8
  %109 = trunc i64 %108 to i32
  %110 = load i32, ptr %12, align 4
  %111 = icmp sgt i32 %109, %110
  br i1 %111, label %112, label %119

112:                                              ; preds = %107, %97
  br label %113

113:                                              ; preds = %112
  br label %114

114:                                              ; preds = %113
  %115 = load ptr, ptr %4, align 8
  %116 = getelementptr inbounds %struct._zval_struct, ptr %115, i32 0, i32 1
  store i32 2, ptr %116, align 8
  br label %117

117:                                              ; preds = %114
  br label %169

118:                                              ; No predecessors!
  br label %119

119:                                              ; preds = %118, %107
  %120 = load ptr, ptr %6, align 8
  %121 = load i64, ptr %11, align 8
  %122 = trunc i64 %121 to i32
  %123 = call ptr @xmlUTF8Strndup(ptr noundef %120, i32 noundef %122)
  store ptr %123, ptr %7, align 8
  %124 = load ptr, ptr %6, align 8
  %125 = load i64, ptr %11, align 8
  %126 = trunc i64 %125 to i32
  %127 = load i32, ptr %12, align 4
  %128 = sext i32 %127 to i64
  %129 = load i64, ptr %11, align 8
  %130 = sub nsw i64 %128, %129
  %131 = trunc i64 %130 to i32
  %132 = call ptr @xmlUTF8Strsub(ptr noundef %124, i32 noundef %126, i32 noundef %131)
  store ptr %132, ptr %8, align 8
  %133 = load ptr, ptr %9, align 8
  %134 = load ptr, ptr %7, align 8
  call void @xmlNodeSetContent(ptr noundef %133, ptr noundef %134)
  %135 = load ptr, ptr %9, align 8
  %136 = getelementptr inbounds %struct._xmlNode, ptr %135, i32 0, i32 8
  %137 = load ptr, ptr %136, align 8
  %138 = load ptr, ptr %8, align 8
  %139 = call ptr @xmlNewDocText(ptr noundef %137, ptr noundef %138)
  store ptr %139, ptr %10, align 8
  %140 = load ptr, ptr @xmlFree, align 8
  %141 = load ptr, ptr %7, align 8
  call void %140(ptr noundef %141)
  %142 = load ptr, ptr @xmlFree, align 8
  %143 = load ptr, ptr %8, align 8
  call void %142(ptr noundef %143)
  %144 = load ptr, ptr %10, align 8
  %145 = icmp eq ptr %144, null
  br i1 %145, label %146, label %151

146:                                              ; preds = %119
  call void @php_dom_throw_error(i32 noundef 11, i32 noundef 1)
  br label %147

147:                                              ; preds = %146
  %148 = load ptr, ptr getelementptr inbounds (%struct._zend_executor_globals, ptr @executor_globals, i32 0, i32 50), align 8
  %149 = icmp ne ptr %148, null
  call void @llvm.assume(i1 %149)
  br label %169

150:                                              ; No predecessors!
  br label %151

151:                                              ; preds = %150, %119
  %152 = load ptr, ptr %9, align 8
  %153 = getelementptr inbounds %struct._xmlNode, ptr %152, i32 0, i32 5
  %154 = load ptr, ptr %153, align 8
  %155 = icmp ne ptr %154, null
  br i1 %155, label %156, label %164

156:                                              ; preds = %151
  %157 = load ptr, ptr %10, align 8
  %158 = getelementptr inbounds %struct._xmlNode, ptr %157, i32 0, i32 1
  store i32 1, ptr %158, align 8
  %159 = load ptr, ptr %9, align 8
  %160 = load ptr, ptr %10, align 8
  %161 = call ptr @xmlAddNextSibling(ptr noundef %159, ptr noundef %160)
  %162 = load ptr, ptr %10, align 8
  %163 = getelementptr inbounds %struct._xmlNode, ptr %162, i32 0, i32 1
  store i32 3, ptr %163, align 8
  br label %164

164:                                              ; preds = %156, %151
  %165 = load ptr, ptr %10, align 8
  %166 = load ptr, ptr %4, align 8
  %167 = load ptr, ptr %13, align 8
  %168 = call zeroext i1 @php_dom_create_object(ptr noundef %165, ptr noundef %166, ptr noundef %167)
  br label %169

169:                                              ; preds = %164, %147, %117, %95, %82, %63, %50, %23
  ret void
}