; Function Attrs: nounwind uwtable
define hidden void @zim_DOMText_splitText(ptr nocapture noundef readonly %0, ptr noundef %1) local_unnamed_addr #0 {
  %3 = alloca i64, align 8
  %4 = getelementptr inbounds i8, ptr %0, i64 44
  %5 = load i32, ptr %4, align 4
  %6 = call i32 (i32, ptr, ...) @zend_parse_parameters(i32 noundef %5, ptr noundef nonnull @.str.1, ptr noundef nonnull %3) #6
  %7 = icmp eq i32 %6, -1
  br i1 %7, label %8, label %11

8:                                                ; preds = %2
  %9 = load ptr, ptr getelementptr inbounds (%struct._zend_executor_globals, ptr @executor_globals, i64 0, i32 50), align 8
  %10 = icmp ne ptr %9, null
  call void @llvm.assume(i1 %10)
  br label %75

11:                                               ; preds = %2
  %12 = getelementptr inbounds i8, ptr %0, i64 32
  %13 = load ptr, ptr %12, align 8
  %14 = getelementptr inbounds i8, ptr %13, i64 -24
  %15 = load ptr, ptr %14, align 8
  %16 = icmp eq ptr %15, null
  br i1 %16, label %17, label %25

17:                                               ; preds = %11
  %18 = getelementptr inbounds i8, ptr %13, i64 16
  %19 = load ptr, ptr %18, align 8
  %20 = getelementptr inbounds i8, ptr %19, i64 8
  %21 = load ptr, ptr %20, align 8
  %22 = getelementptr inbounds i8, ptr %21, i64 24
  call void (ptr, ptr, ...) @zend_throw_error(ptr noundef null, ptr noundef nonnull @.str.2, ptr noundef nonnull %22) #6
  %23 = load ptr, ptr getelementptr inbounds (%struct._zend_executor_globals, ptr @executor_globals, i64 0, i32 50), align 8
  %24 = icmp ne ptr %23, null
  call void @llvm.assume(i1 %24)
  br label %75

25:                                               ; preds = %11
  %26 = load ptr, ptr %15, align 8
  %27 = load i64, ptr %3, align 8
  %28 = icmp slt i64 %27, 0
  br i1 %28, label %29, label %32

29:                                               ; preds = %25
  call void (i32, ptr, ...) @zend_argument_value_error(i32 noundef 1, ptr noundef nonnull @.str.3) #6
  %30 = load ptr, ptr getelementptr inbounds (%struct._zend_executor_globals, ptr @executor_globals, i64 0, i32 50), align 8
  %31 = icmp ne ptr %30, null
  call void @llvm.assume(i1 %31)
  br label %75

32:                                               ; preds = %25
  %33 = getelementptr inbounds i8, ptr %26, i64 8
  %34 = load i32, ptr %33, align 8
  %.off = add i32 %34, -3
  %switch = icmp ult i32 %.off, 2
  br i1 %switch, label %37, label %35

35:                                               ; preds = %32
  %36 = getelementptr inbounds i8, ptr %1, i64 8
  store i32 2, ptr %36, align 8
  br label %75

37:                                               ; preds = %32
  %38 = getelementptr inbounds i8, ptr %26, i64 80
  %39 = load ptr, ptr %38, align 8
  %40 = icmp eq ptr %39, null
  br i1 %40, label %41, label %43

41:                                               ; preds = %37
  %42 = getelementptr inbounds i8, ptr %1, i64 8
  store i32 2, ptr %42, align 8
  br label %75

43:                                               ; preds = %37
  %44 = call i32 @xmlUTF8Strlen(ptr noundef nonnull %39) #6
  %45 = load i64, ptr %3, align 8
  %46 = icmp sgt i64 %45, 2147483647
  br i1 %46, label %50, label %47

47:                                               ; preds = %43
  %48 = trunc i64 %45 to i32
  %49 = icmp slt i32 %44, %48
  br i1 %49, label %50, label %52

50:                                               ; preds = %47, %43
  %51 = getelementptr inbounds i8, ptr %1, i64 8
  store i32 2, ptr %51, align 8
  br label %75

52:                                               ; preds = %47
  %53 = call ptr @xmlUTF8Strndup(ptr noundef nonnull %39, i32 noundef %48) #6
  %54 = load i64, ptr %3, align 8
  %55 = trunc i64 %54 to i32
  %56 = sub i32 %44, %55
  %57 = call ptr @xmlUTF8Strsub(ptr noundef nonnull %39, i32 noundef %55, i32 noundef %56) #6
  call void @xmlNodeSetContent(ptr noundef nonnull %26, ptr noundef %53) #6
  %58 = getelementptr inbounds i8, ptr %26, i64 64
  %59 = load ptr, ptr %58, align 8
  %60 = call ptr @xmlNewDocText(ptr noundef %59, ptr noundef %57) #6
  %61 = load ptr, ptr @xmlFree, align 8
  call void %61(ptr noundef %53) #6
  %62 = load ptr, ptr @xmlFree, align 8
  call void %62(ptr noundef %57) #6
  %63 = icmp eq ptr %60, null
  br i1 %63, label %64, label %67

64:                                               ; preds = %52
  call void @php_dom_throw_error(i32 noundef 11, i32 noundef 1) #6
  %65 = load ptr, ptr getelementptr inbounds (%struct._zend_executor_globals, ptr @executor_globals, i64 0, i32 50), align 8
  %66 = icmp ne ptr %65, null
  call void @llvm.assume(i1 %66)
  br label %75

67:                                               ; preds = %52
  %68 = getelementptr inbounds i8, ptr %26, i64 40
  %69 = load ptr, ptr %68, align 8
  %.not39 = icmp eq ptr %69, null
  br i1 %.not39, label %73, label %70

70:                                               ; preds = %67
  %71 = getelementptr inbounds i8, ptr %60, i64 8
  store i32 1, ptr %71, align 8
  %72 = call ptr @xmlAddNextSibling(ptr noundef nonnull %26, ptr noundef nonnull %60) #6
  store i32 3, ptr %71, align 8
  br label %73

73:                                               ; preds = %70, %67
  %74 = call zeroext i1 @php_dom_create_object(ptr noundef nonnull %60, ptr noundef %1, ptr noundef nonnull %14) #6
  br label %75

75:                                               ; preds = %73, %64, %50, %41, %35, %29, %17, %8
  ret void
}